Certificate:
    Data:
        Version: 3 (0x2)
        Serial Number:
            13:9d:25:89:86:d2:4c:f7:f2:00:0f:43:65:ea:7c:de
        Signature Algorithm: sha256WithRSAEncryption
        Issuer: CN=test
        Validity
            Not Before: Nov  8 07:49:15 2021 GMT
            Not After : Feb 11 07:49:15 2024 GMT
        Subject: CN=localhost
        Subject Public Key Info:
            Public Key Algorithm: rsaEncryption
                RSA Public-Key: (2048 bit)
                Modulus:
                    00:b8:d5:e2:66:d3:aa:e8:f7:2f:d8:76:b6:c6:67:
                    5c:09:77:df:0b:1b:59:ca:f9:a9:fe:cc:50:91:91:
                    a4:2a:96:55:54:8c:a9:17:25:23:8d:93:76:05:5c:
                    9e:86:68:82:22:42:52:f6:7d:72:5f:85:5c:7c:61:
                    d2:b2:a3:a2:5b:40:05:6f:eb:be:63:75:86:29:e7:
                    97:e4:d7:20:1e:b4:c4:79:76:f7:cf:1d:70:ba:b0:
                    10:ef:4e:9c:dc:15:4f:ee:b9:a7:b9:3f:f1:97:dd:
                    77:0b:0e:3b:0b:c2:bd:b3:87:07:a4:95:2c:78:6b:
                    7c:ac:7a:e4:02:c1:a0:3e:f5:ef:3a:51:f4:b3:4a:
                    48:58:d0:16:10:8d:64:ba:a0:16:88:f0:62:55:fe:
                    36:7b:9d:45:9f:f8:6d:e9:2a:1c:35:57:67:8e:2f:
                    55:2f:27:87:dd:ce:df:a4:f3:9b:b5:80:7b:4a:f6:
                    28:74:52:2d:cf:d9:ae:34:7f:6c:1d:89:f2:fc:00:
                    aa:1c:fa:a0:30:22:14:19:76:65:9c:31:60:39:5d:
                    0d:0a:15:80:b2:26:44:69:73:a2:0d:11:c0:b5:21:
                    6f:52:cd:4a:2f:87:23:48:28:fc:8c:db:83:83:56:
                    7a:a5:63:61:4c:6c:bb:3b:80:9f:ba:ad:66:63:b0:
                    63:57
                Exponent: 65537 (0x10001)
        X509v3 extensions:
            X509v3 Basic Constraints: 
                CA:FALSE
            X509v3 Subject Key Identifier: 
                DD:B7:0D:86:6B:E4:2F:30:5F:6C:C1:A8:A8:23:66:06:36:C4:30:BC
            X509v3 Authority Key Identifier: 
                keyid:3F:01:AA:D0:B1:EF:BE:02:B8:27:D5:C1:F1:BD:7A:06:F1:6F:8F:73
                DirName:/CN=test
                serial:72:A1:E3:DA:E4:BC:70:AF:52:61:08:89:9A:82:11:FF:B7:D4:D0:FA

            X509v3 Extended Key Usage: 
                TLS Web Server Authentication
            X509v3 Key Usage: 
                Digital Signature, Key Encipherment
            X509v3 Subject Alternative Name: 
                DNS:localhost
    Signature Algorithm: sha256WithRSAEncryption
         09:97:10:6a:b8:62:e7:e8:a5:a0:45:33:d2:85:0d:ca:61:73:
         8c:85:27:1d:3d:68:8b:65:55:4b:51:d9:86:a8:89:92:52:6b:
         98:4c:4b:75:05:ed:6e:e0:63:96:ce:44:b1:47:2a:71:32:32:
         86:f2:e3:5d:68:bd:82:1c:66:23:7a:ff:9e:e4:c3:a2:cd:79:
         2c:a0:63:9e:f5:cc:e4:71:60:0d:a5:69:5e:b5:c1:cb:4e:94:
         18:c5:f9:cd:89:c3:7a:33:4d:5b:6c:ec:9d:0c:0b:fe:72:72:
         07:b6:6d:ba:2b:10:e6:6e:0b:94:b6:3e:67:1a:c1:fe:73:e0:
         dd:be:4c:1d:29:2b:01:fe:3e:ec:c6:d0:c8:de:04:77:ff:6a:
         7e:81:8f:86:1b:42:70:38:d1:47:cd:b9:11:33:9c:b2:7d:fa:
         b4:5e:a2:a4:cd:0c:ed:3e:b1:28:f6:3d:6f:df:ea:34:83:b2:
         fc:c1:31:28:75:02:fb:64:20:06:89:a9:31:ff:7c:0a:bc:c0:
         aa:11:45:a4:e0:f4:98:cc:f7:77:21:de:41:34:32:97:3b:d7:
         88:58:47:7b:fb:c1:d2:9a:dc:5f:02:3f:4c:d9:99:71:f4:7b:
         c8:31:c6:31:55:93:0e:42:28:b7:cb:43:e3:21:ce:84:de:0c:
         a5:e1:7b:32
-----BEGIN CERTIFICATE-----
MIIDXzCCAkegAwIBAgIQE50liYbSTPfyAA9DZep83jANBgkqhkiG9w0BAQsFADAP
MQ0wCwYDVQQDDAR0ZXN0MB4XDTIxMTEwODA3NDkxNVoXDTI0MDIxMTA3NDkxNVow
FDESMBAGA1UEAwwJbG9jYWxob3N0MIIBIjANBgkqhkiG9w0BAQEFAAOCAQ8AMIIB
CgKCAQEAuNXiZtOq6Pcv2Ha2xmdcCXffCxtZyvmp/sxQkZGkKpZVVIypFyUjjZN2
BVyehmiCIkJS9n1yX4VcfGHSsqOiW0AFb+u+Y3WGKeeX5NcgHrTEeXb3zx1wurAQ
706c3BVP7rmnuT/xl913Cw47C8K9s4cHpJUseGt8rHrkAsGgPvXvOlH0s0pIWNAW
EI1kuqAWiPBiVf42e51Fn/ht6SocNVdnji9VLyeH3c7fpPObtYB7SvYodFItz9mu
NH9sHYny/ACqHPqgMCIUGXZlnDFgOV0NChWAsiZEaXOiDRHAtSFvUs1KL4cjSCj8
jNuDg1Z6pWNhTGy7O4Cfuq1mY7BjVwIDAQABo4GxMIGuMAkGA1UdEwQCMAAwHQYD
VR0OBBYEFN23DYZr5C8wX2zBqKgjZgY2xDC8MEoGA1UdIwRDMEGAFD8BqtCx774C
uCfVwfG9egbxb49zoROkETAPMQ0wCwYDVQQDDAR0ZXN0ghRyoePa5Lxwr1JhCIma
ghH/t9TQ+jATBgNVHSUEDDAKBggrBgEFBQcDATALBgNVHQ8EBAMCBaAwFAYDVR0R
BA0wC4IJbG9jYWxob3N0MA0GCSqGSIb3DQEBCwUAA4IBAQAJlxBquGLn6KWgRTPS
hQ3KYXOMhScdPWiLZVVLUdmGqImSUmuYTEt1Be1u4GOWzkSxRypxMjKG8uNdaL2C
HGYjev+e5MOizXksoGOe9czkcWANpWletcHLTpQYxfnNicN6M01bbOydDAv+cnIH
tm26KxDmbguUtj5nGsH+c+DdvkwdKSsB/j7sxtDI3gR3/2p+gY+GG0JwONFHzbkR
M5yyffq0XqKkzQztPrEo9j1v3+o0g7L8wTEodQL7ZCAGiakx/3wKvMCqEUWk4PSY
zPd3Id5BNDKXO9eIWEd7+8HSmtxfAj9M2Zlx9HvIMcYxVZMOQii3y0PjIc6E3gyl
4Xsy
-----END CERTIFICATE-----
