Certificate:
    Data:
        Version: 3 (0x2)
        Serial Number:
            80:55:80:4a:ca:e0:10:90:30:fb:79:47:f3:11:47:a9
        Signature Algorithm: sha256WithRSAEncryption
        Issuer: CN=test
        Validity
            Not Before: Nov  8 07:51:56 2021 GMT
            Not After : Feb 11 07:51:56 2024 GMT
        Subject: CN=test
        Subject Public Key Info:
            Public Key Algorithm: rsaEncryption
                RSA Public-Key: (2048 bit)
                Modulus:
                    00:cd:ba:3a:57:9b:0f:9b:dd:5a:c3:8c:ac:f0:24:
                    2e:20:8e:3b:33:6d:86:b2:cb:81:00:83:4a:4f:16:
                    40:cd:b3:e5:1d:c5:7f:98:e7:4b:a0:f5:6f:f3:5b:
                    1b:a2:6b:16:4d:5c:5b:fe:46:c3:58:8e:0e:13:f9:
                    ec:69:68:37:f6:7d:e0:7e:8b:95:0f:71:ba:89:b1:
                    5d:0e:ca:7c:9b:9e:07:57:c2:4b:e3:42:96:ef:5e:
                    43:ea:fe:11:f2:38:3a:b4:0c:e3:e2:4c:28:e2:07:
                    bb:9a:56:63:98:88:91:15:f5:27:4d:a5:d1:88:0c:
                    49:48:24:8f:71:8d:7d:0e:48:1b:d9:95:a4:7b:f2:
                    b7:f6:68:95:0c:14:2f:19:8d:ac:c5:cd:95:ac:42:
                    93:ab:6e:60:33:40:90:f6:80:4e:a8:4b:f0:0f:d4:
                    d6:c0:5d:f2:8f:dd:c0:41:2b:78:96:12:60:37:e7:
                    c5:cc:ba:7a:36:de:0a:f0:e5:c9:90:51:3d:66:a6:
                    d1:b9:d2:b4:d3:ad:cb:72:f9:46:45:33:65:4a:e3:
                    e9:95:ee:23:37:92:b0:6b:a8:95:02:06:04:6b:7e:
                    44:a9:4e:3c:fd:93:5b:32:4c:c3:40:24:9e:52:14:
                    d1:ac:aa:c5:88:4b:88:75:51:1c:96:26:c2:d7:75:
                    c6:7b
                Exponent: 65537 (0x10001)
        X509v3 extensions:
            X509v3 Basic Constraints: 
                CA:FALSE
            X509v3 Subject Key Identifier: 
                8E:9E:25:9F:4F:53:6D:1D:D6:2C:08:03:2C:66:C3:6F:90:16:53:96
            X509v3 Authority Key Identifier: 
                keyid:3F:01:AA:D0:B1:EF:BE:02:B8:27:D5:C1:F1:BD:7A:06:F1:6F:8F:73
                DirName:/CN=test
                serial:72:A1:E3:DA:E4:BC:70:AF:52:61:08:89:9A:82:11:FF:B7:D4:D0:FA

            X509v3 Extended Key Usage: 
                TLS Web Client Authentication
            X509v3 Key Usage: 
                Digital Signature
    Signature Algorithm: sha256WithRSAEncryption
         00:67:d2:93:e6:69:cb:fd:f6:9f:df:f6:59:20:2a:f6:0f:03:
         ba:b3:da:65:de:62:23:36:a2:8d:4f:27:22:0e:3d:01:80:d9:
         59:cd:c5:f0:1a:9b:c5:e8:f4:6f:e2:c7:29:fc:37:21:2f:6f:
         9d:b8:8c:f6:6e:37:c9:b1:4a:0d:9d:e5:cd:0a:4b:01:0a:98:
         8f:46:e9:24:97:9c:ef:75:dd:a4:f7:33:7d:df:09:f3:4c:b6:
         3c:38:a7:2e:26:1d:68:f9:87:9a:ae:6c:60:d9:de:32:f1:69:
         66:97:cb:20:81:0d:b5:01:74:b5:73:8c:85:2b:5a:73:ea:cd:
         e5:25:13:44:3a:24:0a:0a:72:4d:42:cc:0b:5a:c9:96:05:20:
         37:fb:1b:95:18:8d:66:ff:10:f8:3a:d8:03:6c:6c:37:6e:de:
         51:59:08:7e:d1:33:11:08:74:ed:fc:3f:4d:19:00:82:88:9f:
         95:66:a6:e9:f1:73:55:e1:7a:3f:ae:a6:e1:b7:51:df:92:28:
         19:42:1d:a5:a7:ed:b9:e4:00:ea:a7:55:e3:55:12:45:5f:f9:
         e1:a5:1f:13:f1:ee:1a:31:e5:ae:9d:2e:ef:dd:d8:56:b2:7c:
         f6:ba:08:41:db:13:16:31:0e:5d:41:b2:6d:98:01:e4:43:a2:
         d1:34:9e:91
-----BEGIN CERTIFICATE-----
MIIDRTCCAi2gAwIBAgIRAIBVgErK4BCQMPt5R/MRR6kwDQYJKoZIhvcNAQELBQAw
DzENMAsGA1UEAwwEdGVzdDAeFw0yMTExMDgwNzUxNTZaFw0yNDAyMTEwNzUxNTZa
MA8xDTALBgNVBAMMBHRlc3QwggEiMA0GCSqGSIb3DQEBAQUAA4IBDwAwggEKAoIB
AQDNujpXmw+b3VrDjKzwJC4gjjszbYayy4EAg0pPFkDNs+UdxX+Y50ug9W/zWxui
axZNXFv+RsNYjg4T+expaDf2feB+i5UPcbqJsV0OynybngdXwkvjQpbvXkPq/hHy
ODq0DOPiTCjiB7uaVmOYiJEV9SdNpdGIDElIJI9xjX0OSBvZlaR78rf2aJUMFC8Z
jazFzZWsQpOrbmAzQJD2gE6oS/AP1NbAXfKP3cBBK3iWEmA358XMuno23grw5cmQ
UT1mptG50rTTrcty+UZFM2VK4+mV7iM3krBrqJUCBgRrfkSpTjz9k1syTMNAJJ5S
FNGsqsWIS4h1URyWJsLXdcZ7AgMBAAGjgZswgZgwCQYDVR0TBAIwADAdBgNVHQ4E
FgQUjp4ln09TbR3WLAgDLGbDb5AWU5YwSgYDVR0jBEMwQYAUPwGq0LHvvgK4J9XB
8b16BvFvj3OhE6QRMA8xDTALBgNVBAMMBHRlc3SCFHKh49rkvHCvUmEIiZqCEf+3
1ND6MBMGA1UdJQQMMAoGCCsGAQUFBwMCMAsGA1UdDwQEAwIHgDANBgkqhkiG9w0B
AQsFAAOCAQEAAGfSk+Zpy/32n9/2WSAq9g8DurPaZd5iIzaijU8nIg49AYDZWc3F
8Bqbxej0b+LHKfw3IS9vnbiM9m43ybFKDZ3lzQpLAQqYj0bpJJec73XdpPczfd8J
80y2PDinLiYdaPmHmq5sYNneMvFpZpfLIIENtQF0tXOMhStac+rN5SUTRDokCgpy
TULMC1rJlgUgN/sblRiNZv8Q+DrYA2xsN27eUVkIftEzEQh07fw/TRkAgoiflWam
6fFzVeF6P66m4bdR35IoGUIdpaftueQA6qdV41USRV/54aUfE/HuGjHlrp0u793Y
VrJ89roIQdsTFjEOXUGybZgB5EOi0TSekQ==
-----END CERTIFICATE-----
